target datalayout = "e-m:e-p270:32:32-p271:32:32-p272:64:64-i64:64-i128:128-f80:128-n8:16:32:64-S128"
target triple = "x86_64-pc-linux-gnu"

%class.CompilerDirectives = type { ptr, ptr, i32, ptr, ptr }

; Function Attrs: mustprogress nounwind uwtable
define hidden void @_ZN18CompilerDirectives8finalizeEP12outputStream(ptr noundef nonnull align 8 dereferenceable(40) %0, ptr noundef %1) #1 align 2 {
  %3 = alloca ptr, align 8
  %4 = alloca ptr, align 8
  store ptr %0, ptr %3, align 8
  store ptr %1, ptr %4, align 8
  %5 = load ptr, ptr %3, align 8
  %6 = getelementptr inbounds %class.CompilerDirectives, ptr %5, i32 0, i32 3
  %7 = load ptr, ptr %6, align 8
  %8 = icmp ne ptr %7, null
  br i1 %8, label %9, label %13

9:                                                ; preds = %2
  %10 = getelementptr inbounds %class.CompilerDirectives, ptr %5, i32 0, i32 3
  %11 = load ptr, ptr %10, align 8
  %12 = load ptr, ptr %4, align 8
  call void @_ZN12DirectiveSet8finalizeEP12outputStream(ptr noundef nonnull align 8 dereferenceable(280) %11, ptr noundef %12)
  br label %13

13:                                               ; preds = %9, %2
  %14 = getelementptr inbounds %class.CompilerDirectives, ptr %5, i32 0, i32 4
  %15 = load ptr, ptr %14, align 8
  %16 = icmp ne ptr %15, null
  br i1 %16, label %17, label %21

17:                                               ; preds = %13
  %18 = getelementptr inbounds %class.CompilerDirectives, ptr %5, i32 0, i32 4
  %19 = load ptr, ptr %18, align 8
  %20 = load ptr, ptr %4, align 8
  call void @_ZN12DirectiveSet8finalizeEP12outputStream(ptr noundef nonnull align 8 dereferenceable(280) %19, ptr noundef %20)
  br label %21

21:                                               ; preds = %17, %13
  ret void
}