; Function Attrs: mustprogress nounwind uwtable
define hidden void @_ZN18CompilerDirectives8finalizeEP12outputStream(ptr nocapture noundef nonnull readonly align 8 dereferenceable(40) %0, ptr noundef %1) local_unnamed_addr #0 align 2 {
  %3 = getelementptr inbounds i8, ptr %0, i64 24
  %4 = load ptr, ptr %3, align 8
  %.not = icmp eq ptr %4, null
  br i1 %.not, label %6, label %5

5:                                                ; preds = %2
  tail call void @_ZN12DirectiveSet8finalizeEP12outputStream(ptr noundef nonnull align 8 dereferenceable(280) %4, ptr noundef %1)
  br label %6

6:                                                ; preds = %5, %2
  %7 = getelementptr inbounds i8, ptr %0, i64 32
  %8 = load ptr, ptr %7, align 8
  %.not4 = icmp eq ptr %8, null
  br i1 %.not4, label %10, label %9

9:                                                ; preds = %6
  tail call void @_ZN12DirectiveSet8finalizeEP12outputStream(ptr noundef nonnull align 8 dereferenceable(280) %8, ptr noundef %1)
  br label %10

10:                                               ; preds = %9, %6
  ret void
}